; Function Attrs: mustprogress uwtable
define hidden noundef ptr @_ZN6spacer13lemma_cluster14get_lemma_infoERK3refINS_5lemmaEE(ptr noundef nonnull readonly align 8 captures(none) dereferenceable(148) %0, ptr noundef nonnull readonly align 8 captures(none) dereferenceable(8) %1) local_unnamed_addr #3 align 2 {
  %3 = getelementptr inbounds nuw i8, ptr %0, i64 80
  %4 = load ptr, ptr %3, align 8, !tbaa !37
  %5 = icmp eq ptr %4, null
  br i1 %5, label %._crit_edge, label %_ZN6vectorIN6spacer13lemma_cluster10lemma_infoELb1EjE3endEv.exit

_ZN6vectorIN6spacer13lemma_cluster10lemma_infoELb1EjE3endEv.exit: ; preds = %2
  %6 = getelementptr inbounds i8, ptr %4, i64 -4
  %7 = load i32, ptr %6, align 4, !tbaa !42
  %8 = zext i32 %7 to i64
  %9 = getelementptr inbounds nuw %"class.spacer::lemma_cluster::lemma_info", ptr %4, i64 %8
  %.not20 = icmp eq i32 %7, 0
  br i1 %.not20, label %._crit_edge, label %.lr.ph

.lr.ph:                                           ; preds = %_ZN6vectorIN6spacer13lemma_cluster10lemma_infoELb1EjE3endEv.exit
  %10 = load ptr, ptr %1, align 8, !tbaa !47
  br label %11

11:                                               ; preds = %.lr.ph, %14
  %.01421 = phi ptr [ %4, %.lr.ph ], [ %15, %14 ]
  %12 = load ptr, ptr %.01421, align 8, !tbaa !47
  %13 = icmp eq ptr %10, %12
  br i1 %13, label %.loopexit, label %14

14:                                               ; preds = %11
  %15 = getelementptr inbounds nuw i8, ptr %.01421, i64 136
  %.not = icmp eq ptr %15, %9
  br i1 %.not, label %._crit_edge, label %11

._crit_edge:                                      ; preds = %14, %2, %_ZN6vectorIN6spacer13lemma_cluster10lemma_infoELb1EjE3endEv.exit
  tail call void @_Z26notify_assertion_violationPKciS0_(ptr noundef nonnull @.str, i32 noundef 124, ptr noundef nonnull @.str.1)
  tail call void @_Z18invoke_exit_actionj(i32 noundef 114)
  br label %.loopexit

.loopexit:                                        ; preds = %11, %._crit_edge
  %.3 = phi ptr [ null, %._crit_edge ], [ %.01421, %11 ]
  ret ptr %.3
}